; ModuleID = 'main.7rcbfp3g-cgu.0'
source_filename = "main.7rcbfp3g-cgu.0"
target datalayout = "e-m:o-p270:32:32-p271:32:32-p272:64:64-i64:64-f80:128-n8:16:32:64-S128"
target triple = "x86_64-apple-macosx10.7.0"

%"std::fmt::Arguments" = type { [0 x i64], { [0 x { [0 x i8]*, i64 }]*, i64 }, [0 x i64], { i64*, i64 }, [0 x i64], { [0 x { i8*, i64* }]*, i64 }, [0 x i64] }
%"unwind::libunwind::_Unwind_Exception" = type { [0 x i64], i64, [0 x i64], void (i32, %"unwind::libunwind::_Unwind_Exception"*)*, [0 x i64], [6 x i64], [0 x i64] }
%"unwind::libunwind::_Unwind_Context" = type { [0 x i8] }

@vtable.0 = private unnamed_addr constant { void (i64**)*, i64, i64, i32 (i64**)*, i32 (i64**)*, i32 (i64**)* } { void (i64**)* @_ZN4core3ptr13drop_in_place17hedd3a43dbefdd553E, i64 8, i64 8, i32 (i64**)* @"_ZN3std2rt10lang_start28_$u7b$$u7b$closure$u7d$$u7d$17h9c8484bc998594eaE", i32 (i64**)* @"_ZN3std2rt10lang_start28_$u7b$$u7b$closure$u7d$$u7d$17h9c8484bc998594eaE", i32 (i64**)* @"_ZN4core3ops8function6FnOnce40call_once$u7b$$u7b$vtable.shim$u7d$$u7d$17h60f50fcfe117e83eE" }, align 8
@alloc1 = private unnamed_addr constant <{ [14 x i8] }> <{ [14 x i8] c"hello, world!\0A" }>, align 1
@alloc2 = private unnamed_addr constant <{ i8*, [8 x i8] }> <{ i8* getelementptr inbounds (<{ [14 x i8] }>, <{ [14 x i8] }>* @alloc1, i32 0, i32 0, i32 0), [8 x i8] c"\0E\00\00\00\00\00\00\00" }>, align 8
@alloc4 = private unnamed_addr constant <{ [0 x i8] }> zeroinitializer, align 8

; std::sys_common::backtrace::__rust_begin_short_backtrace
; Function Attrs: noinline uwtable
define internal void @_ZN3std10sys_common9backtrace28__rust_begin_short_backtrace17h200cdd7061e6a623E(void ()* nonnull %f) unnamed_addr #0 personality i32 (i32, i32, i64, %"unwind::libunwind::_Unwind_Exception"*, %"unwind::libunwind::_Unwind_Context"*)* @rust_eh_personality {
start:
  %0 = alloca { i8*, i32 }, align 8
  %_5 = alloca {}, align 1
  %_3 = alloca {}, align 1
; call core::ops::function::FnOnce::call_once
  call void @_ZN4core3ops8function6FnOnce9call_once17h9980677a115f02eeE(void ()* nonnull %f)
  br label %bb1

bb1:                                              ; preds = %start
; invoke core::hint::black_box
  invoke void @_ZN4core4hint9black_box17hdbd6b4199febd209E()
          to label %bb2 unwind label %cleanup

bb2:                                              ; preds = %bb1
  ret void

bb3:                                              ; preds = %cleanup
  br label %bb4

bb4:                                              ; preds = %bb3
  %1 = bitcast { i8*, i32 }* %0 to i8**
  %2 = load i8*, i8** %1, align 8
  %3 = getelementptr inbounds { i8*, i32 }, { i8*, i32 }* %0, i32 0, i32 1
  %4 = load i32, i32* %3, align 8
  %5 = insertvalue { i8*, i32 } undef, i8* %2, 0
  %6 = insertvalue { i8*, i32 } %5, i32 %4, 1
  resume { i8*, i32 } %6

cleanup:                                          ; preds = %bb1
  %7 = landingpad { i8*, i32 }
          cleanup
  %8 = extractvalue { i8*, i32 } %7, 0
  %9 = extractvalue { i8*, i32 } %7, 1
  %10 = getelementptr inbounds { i8*, i32 }, { i8*, i32 }* %0, i32 0, i32 0
  store i8* %8, i8** %10, align 8
  %11 = getelementptr inbounds { i8*, i32 }, { i8*, i32 }* %0, i32 0, i32 1
  store i32 %9, i32* %11, align 8
  br label %bb3
}

; std::rt::lang_start
; Function Attrs: uwtable
define hidden i64 @_ZN3std2rt10lang_start17h904098ff54a1df49E(void ()* nonnull %main, i64 %argc, i8** %argv) unnamed_addr #1 {
start:
  %_7 = alloca i64*, align 8
  %0 = bitcast i64** %_7 to void ()**
  store void ()* %main, void ()** %0, align 8
  %_4.0 = bitcast i64** %_7 to {}*
; call std::rt::lang_start_internal
  %1 = call i64 @_ZN3std2rt19lang_start_internal17h1faf79574185df6dE({}* nonnull align 1 %_4.0, [3 x i64]* noalias readonly align 8 dereferenceable(24) bitcast ({ void (i64**)*, i64, i64, i32 (i64**)*, i32 (i64**)*, i32 (i64**)* }* @vtable.0 to [3 x i64]*), i64 %argc, i8** %argv)
  br label %bb1

bb1:                                              ; preds = %start
  ret i64 %1
}

; std::rt::lang_start::{{closure}}
; Function Attrs: inlinehint uwtable
define internal i32 @"_ZN3std2rt10lang_start28_$u7b$$u7b$closure$u7d$$u7d$17h9c8484bc998594eaE"(i64** noalias readonly align 8 dereferenceable(8) %_1) unnamed_addr #2 {
start:
  %0 = bitcast i64** %_1 to void ()**
  %_3 = load void ()*, void ()** %0, align 8, !nonnull !2
; call std::sys_common::backtrace::__rust_begin_short_backtrace
  call void @_ZN3std10sys_common9backtrace28__rust_begin_short_backtrace17h200cdd7061e6a623E(void ()* nonnull %_3)
  br label %bb1

bb1:                                              ; preds = %start
; call <() as std::process::Termination>::report
  %1 = call i32 @"_ZN54_$LT$$LP$$RP$$u20$as$u20$std..process..Termination$GT$6report17h1ae9dbe08f1825feE"()
  br label %bb2

bb2:                                              ; preds = %bb1
  ret i32 %1
}

; std::sys::unix::process::process_common::ExitCode::as_i32
; Function Attrs: inlinehint uwtable
define internal i32 @_ZN3std3sys4unix7process14process_common8ExitCode6as_i3217h86d1b14a311f5cb0E(i8* noalias readonly align 1 dereferenceable(1) %self) unnamed_addr #2 {
start:
  %_2 = load i8, i8* %self, align 1
  %0 = zext i8 %_2 to i32
  ret i32 %0
}

; core::fmt::Arguments::new_v1
; Function Attrs: inlinehint uwtable
define internal void @_ZN4core3fmt9Arguments6new_v117h911d50820ccf2c2aE(%"std::fmt::Arguments"* noalias nocapture sret dereferenceable(48) %0, [0 x { [0 x i8]*, i64 }]* noalias nonnull readonly align 8 %pieces.0, i64 %pieces.1, [0 x { i8*, i64* }]* noalias nonnull readonly align 8 %args.0, i64 %args.1) unnamed_addr #2 {
start:
  %_4 = alloca { i64*, i64 }, align 8
  %1 = bitcast { i64*, i64 }* %_4 to {}**
  store {}* null, {}** %1, align 8
  %2 = bitcast %"std::fmt::Arguments"* %0 to { [0 x { [0 x i8]*, i64 }]*, i64 }*
  %3 = getelementptr inbounds { [0 x { [0 x i8]*, i64 }]*, i64 }, { [0 x { [0 x i8]*, i64 }]*, i64 }* %2, i32 0, i32 0
  store [0 x { [0 x i8]*, i64 }]* %pieces.0, [0 x { [0 x i8]*, i64 }]** %3, align 8
  %4 = getelementptr inbounds { [0 x { [0 x i8]*, i64 }]*, i64 }, { [0 x { [0 x i8]*, i64 }]*, i64 }* %2, i32 0, i32 1
  store i64 %pieces.1, i64* %4, align 8
  %5 = getelementptr inbounds %"std::fmt::Arguments", %"std::fmt::Arguments"* %0, i32 0, i32 3
  %6 = getelementptr inbounds { i64*, i64 }, { i64*, i64 }* %_4, i32 0, i32 0
  %7 = load i64*, i64** %6, align 8
  %8 = getelementptr inbounds { i64*, i64 }, { i64*, i64 }* %_4, i32 0, i32 1
  %9 = load i64, i64* %8, align 8
  %10 = getelementptr inbounds { i64*, i64 }, { i64*, i64 }* %5, i32 0, i32 0
  store i64* %7, i64** %10, align 8
  %11 = getelementptr inbounds { i64*, i64 }, { i64*, i64 }* %5, i32 0, i32 1
  store i64 %9, i64* %11, align 8
  %12 = getelementptr inbounds %"std::fmt::Arguments", %"std::fmt::Arguments"* %0, i32 0, i32 5
  %13 = getelementptr inbounds { [0 x { i8*, i64* }]*, i64 }, { [0 x { i8*, i64* }]*, i64 }* %12, i32 0, i32 0
  store [0 x { i8*, i64* }]* %args.0, [0 x { i8*, i64* }]** %13, align 8
  %14 = getelementptr inbounds { [0 x { i8*, i64* }]*, i64 }, { [0 x { i8*, i64* }]*, i64 }* %12, i32 0, i32 1
  store i64 %args.1, i64* %14, align 8
  ret void
}

; core::ops::function::FnOnce::call_once{{vtable.shim}}
; Function Attrs: inlinehint uwtable
define internal i32 @"_ZN4core3ops8function6FnOnce40call_once$u7b$$u7b$vtable.shim$u7d$$u7d$17h60f50fcfe117e83eE"(i64** %_1) unnamed_addr #2 {
start:
  %_2 = alloca {}, align 1
  %0 = load i64*, i64** %_1, align 8, !nonnull !2
; call core::ops::function::FnOnce::call_once
  %1 = call i32 @_ZN4core3ops8function6FnOnce9call_once17h88efecb0845d1fd9E(i64* nonnull %0)
  br label %bb1

bb1:                                              ; preds = %start
  ret i32 %1
}

; core::ops::function::FnOnce::call_once
; Function Attrs: inlinehint uwtable
define internal i32 @_ZN4core3ops8function6FnOnce9call_once17h88efecb0845d1fd9E(i64* nonnull %0) unnamed_addr #2 personality i32 (i32, i32, i64, %"unwind::libunwind::_Unwind_Exception"*, %"unwind::libunwind::_Unwind_Context"*)* @rust_eh_personality {
start:
  %1 = alloca { i8*, i32 }, align 8
  %_2 = alloca {}, align 1
  %_1 = alloca i64*, align 8
  store i64* %0, i64** %_1, align 8
; invoke std::rt::lang_start::{{closure}}
  %2 = invoke i32 @"_ZN3std2rt10lang_start28_$u7b$$u7b$closure$u7d$$u7d$17h9c8484bc998594eaE"(i64** noalias readonly align 8 dereferenceable(8) %_1)
          to label %bb1 unwind label %cleanup

bb1:                                              ; preds = %start
  br label %bb2

bb2:                                              ; preds = %bb1
  ret i32 %2

bb3:                                              ; preds = %cleanup
  br label %bb4

bb4:                                              ; preds = %bb3
  %3 = bitcast { i8*, i32 }* %1 to i8**
  %4 = load i8*, i8** %3, align 8
  %5 = getelementptr inbounds { i8*, i32 }, { i8*, i32 }* %1, i32 0, i32 1
  %6 = load i32, i32* %5, align 8
  %7 = insertvalue { i8*, i32 } undef, i8* %4, 0
  %8 = insertvalue { i8*, i32 } %7, i32 %6, 1
  resume { i8*, i32 } %8

cleanup:                                          ; preds = %start
  %9 = landingpad { i8*, i32 }
          cleanup
  %10 = extractvalue { i8*, i32 } %9, 0
  %11 = extractvalue { i8*, i32 } %9, 1
  %12 = getelementptr inbounds { i8*, i32 }, { i8*, i32 }* %1, i32 0, i32 0
  store i8* %10, i8** %12, align 8
  %13 = getelementptr inbounds { i8*, i32 }, { i8*, i32 }* %1, i32 0, i32 1
  store i32 %11, i32* %13, align 8
  br label %bb3
}

; core::ops::function::FnOnce::call_once
; Function Attrs: inlinehint uwtable
define internal void @_ZN4core3ops8function6FnOnce9call_once17h9980677a115f02eeE(void ()* nonnull %_1) unnamed_addr #2 {
start:
  %_2 = alloca {}, align 1
  call void %_1()
  br label %bb1

bb1:                                              ; preds = %start
  ret void
}

; core::ptr::drop_in_place
; Function Attrs: inlinehint uwtable
define internal void @_ZN4core3ptr13drop_in_place17hedd3a43dbefdd553E(i64** %_1) unnamed_addr #2 {
start:
  %0 = alloca {}, align 1
  ret void
}

; core::hint::black_box
; Function Attrs: inlinehint uwtable
define internal void @_ZN4core4hint9black_box17hdbd6b4199febd209E() unnamed_addr #2 {
start:
  %dummy = alloca {}, align 1
  call void asm sideeffect "", "r,~{memory},~{dirflag},~{fpsr},~{flags}"({}* %dummy), !srcloc !3
  ret void
}

; <() as std::process::Termination>::report
; Function Attrs: inlinehint uwtable
define internal i32 @"_ZN54_$LT$$LP$$RP$$u20$as$u20$std..process..Termination$GT$6report17h1ae9dbe08f1825feE"() unnamed_addr #2 {
start:
; call <std::process::ExitCode as std::process::Termination>::report
  %0 = call i32 @"_ZN68_$LT$std..process..ExitCode$u20$as$u20$std..process..Termination$GT$6report17h88b79ec4ea8447b0E"(i8 0)
  br label %bb1

bb1:                                              ; preds = %start
  ret i32 %0
}

; <std::process::ExitCode as std::process::Termination>::report
; Function Attrs: inlinehint uwtable
define internal i32 @"_ZN68_$LT$std..process..ExitCode$u20$as$u20$std..process..Termination$GT$6report17h88b79ec4ea8447b0E"(i8 %0) unnamed_addr #2 {
start:
  %self = alloca i8, align 1
  store i8 %0, i8* %self, align 1
; call std::sys::unix::process::process_common::ExitCode::as_i32
  %1 = call i32 @_ZN3std3sys4unix7process14process_common8ExitCode6as_i3217h86d1b14a311f5cb0E(i8* noalias readonly align 1 dereferenceable(1) %self)
  br label %bb1

bb1:                                              ; preds = %start
  ret i32 %1
}

; main::main
; Function Attrs: uwtable
define internal void @_ZN4main4main17h2d6c3d678af9e020E() unnamed_addr #1 {
start:
  %_2 = alloca %"std::fmt::Arguments", align 8
; call core::fmt::Arguments::new_v1
  call void @_ZN4core3fmt9Arguments6new_v117h911d50820ccf2c2aE(%"std::fmt::Arguments"* noalias nocapture sret dereferenceable(48) %_2, [0 x { [0 x i8]*, i64 }]* noalias nonnull readonly align 8 bitcast (<{ i8*, [8 x i8] }>* @alloc2 to [0 x { [0 x i8]*, i64 }]*), i64 1, [0 x { i8*, i64* }]* noalias nonnull readonly align 8 bitcast (<{ [0 x i8] }>* @alloc4 to [0 x { i8*, i64* }]*), i64 0)
  br label %bb1

bb1:                                              ; preds = %start
; call std::io::stdio::_print
  call void @_ZN3std2io5stdio6_print17h2b92ca946b4108adE(%"std::fmt::Arguments"* noalias nocapture dereferenceable(48) %_2)
  br label %bb2

bb2:                                              ; preds = %bb1
  ret void
}

; Function Attrs: nounwind uwtable
declare i32 @rust_eh_personality(i32, i32, i64, %"unwind::libunwind::_Unwind_Exception"*, %"unwind::libunwind::_Unwind_Context"*) unnamed_addr #3

; std::rt::lang_start_internal
; Function Attrs: uwtable
declare i64 @_ZN3std2rt19lang_start_internal17h1faf79574185df6dE({}* nonnull align 1, [3 x i64]* noalias readonly align 8 dereferenceable(24), i64, i8**) unnamed_addr #1

; std::io::stdio::_print
; Function Attrs: uwtable
declare void @_ZN3std2io5stdio6_print17h2b92ca946b4108adE(%"std::fmt::Arguments"* noalias nocapture dereferenceable(48)) unnamed_addr #1

define i32 @main(i32 %0, i8** %1) unnamed_addr #4 {
top:
  %2 = sext i32 %0 to i64
; call std::rt::lang_start
  %3 = call i64 @_ZN3std2rt10lang_start17h904098ff54a1df49E(void ()* @_ZN4main4main17h2d6c3d678af9e020E, i64 %2, i8** %1)
  %4 = trunc i64 %3 to i32
  ret i32 %4
}

attributes #0 = { noinline uwtable "frame-pointer"="all" "probe-stack"="__rust_probestack" "target-cpu"="core2" }
attributes #1 = { uwtable "frame-pointer"="all" "probe-stack"="__rust_probestack" "target-cpu"="core2" }
attributes #2 = { inlinehint uwtable "frame-pointer"="all" "probe-stack"="__rust_probestack" "target-cpu"="core2" }
attributes #3 = { nounwind uwtable "frame-pointer"="all" "probe-stack"="__rust_probestack" "target-cpu"="core2" }
attributes #4 = { "frame-pointer"="all" "target-cpu"="core2" }

!llvm.module.flags = !{!0, !1}

!0 = !{i32 7, !"PIC Level", i32 2}
!1 = !{i32 7, !"PIE Level", i32 2}
!2 = !{}
!3 = !{i32 2724544}
